target datalayout = "e-m:e-p270:32:32-p271:32:32-p272:64:64-i64:64-i128:128-f80:128-n8:16:32:64-S128"
target triple = "x86_64-pc-linux-gnu"

%struct.AVFilterContext = type { ptr, ptr, ptr, ptr, ptr, i32, ptr, ptr, i32, ptr, ptr, i32, i32, ptr, ptr, ptr, ptr, i32, ptr, i32, i32 }
%struct.FIREqualizerContext = type { ptr, ptr, ptr, ptr, ptr, ptr, ptr, ptr, ptr, ptr, ptr, ptr, ptr, ptr, ptr, i32, i32, i32, ptr, ptr, ptr, ptr, ptr, ptr, ptr, ptr, ptr, ptr, ptr, i32, i32, i64, i32, i32, ptr, ptr, ptr, ptr, double, double, i32, i32, i32, i32, i32, ptr, i32, i32, i32, i32, i32, [4096 x %struct.GainEntry] }
%struct.GainEntry = type { double, double }

@.str.12 = private unnamed_addr constant [30 x i8] c"Assertion %s failed at %s:%d\0A\00", align 1
@.str.14 = private unnamed_addr constant [30 x i8] c"libavfilter/af_firequalizer.c\00", align 1
@.str.19 = private unnamed_addr constant [4 x i8] c"res\00", align 1

; Function Attrs: inlinehint nounwind uwtable
define available_externally ptr @bsearch(ptr noundef nonnull %0, ptr noundef nonnull %1, i64 noundef %2, i64 noundef %3, ptr noundef nonnull %4) #4 {
  %6 = alloca ptr, align 8
  %7 = alloca ptr, align 8
  %8 = alloca ptr, align 8
  %9 = alloca i64, align 8
  %10 = alloca i64, align 8
  %11 = alloca ptr, align 8
  %12 = alloca i64, align 8
  %13 = alloca i64, align 8
  %14 = alloca i64, align 8
  %15 = alloca ptr, align 8
  %16 = alloca i32, align 4
  %17 = alloca i32, align 4
  store ptr %0, ptr %7, align 8, !tbaa !149
  store ptr %1, ptr %8, align 8, !tbaa !149
  store i64 %2, ptr %9, align 8, !tbaa !168
  store i64 %3, ptr %10, align 8, !tbaa !168
  store ptr %4, ptr %11, align 8, !tbaa !149
  call void @llvm.lifetime.start.p0(i64 8, ptr %12) #12
  call void @llvm.lifetime.start.p0(i64 8, ptr %13) #12
  call void @llvm.lifetime.start.p0(i64 8, ptr %14) #12
  call void @llvm.lifetime.start.p0(i64 8, ptr %15) #12
  call void @llvm.lifetime.start.p0(i64 4, ptr %16) #12
  store i64 0, ptr %12, align 8, !tbaa !168
  %18 = load i64, ptr %9, align 8, !tbaa !168
  store i64 %18, ptr %13, align 8, !tbaa !168
  br label %19

19:                                               ; preds = %50, %5
  %20 = load i64, ptr %12, align 8, !tbaa !168
  %21 = load i64, ptr %13, align 8, !tbaa !168
  %22 = icmp ult i64 %20, %21
  br i1 %22, label %23, label %51

23:                                               ; preds = %19
  %24 = load i64, ptr %12, align 8, !tbaa !168
  %25 = load i64, ptr %13, align 8, !tbaa !168
  %26 = add i64 %24, %25
  %27 = udiv i64 %26, 2
  store i64 %27, ptr %14, align 8, !tbaa !168
  %28 = load ptr, ptr %8, align 8, !tbaa !149
  %29 = load i64, ptr %14, align 8, !tbaa !168
  %30 = load i64, ptr %10, align 8, !tbaa !168
  %31 = mul i64 %29, %30
  %32 = getelementptr inbounds nuw i8, ptr %28, i64 %31
  store ptr %32, ptr %15, align 8, !tbaa !149
  %33 = load ptr, ptr %11, align 8, !tbaa !149
  %34 = load ptr, ptr %7, align 8, !tbaa !149
  %35 = load ptr, ptr %15, align 8, !tbaa !149
  %36 = call i32 %33(ptr noundef %34, ptr noundef %35)
  store i32 %36, ptr %16, align 4, !tbaa !25
  %37 = load i32, ptr %16, align 4, !tbaa !25
  %38 = icmp slt i32 %37, 0
  br i1 %38, label %39, label %41

39:                                               ; preds = %23
  %40 = load i64, ptr %14, align 8, !tbaa !168
  store i64 %40, ptr %13, align 8, !tbaa !168
  br label %50

41:                                               ; preds = %23
  %42 = load i32, ptr %16, align 4, !tbaa !25
  %43 = icmp sgt i32 %42, 0
  br i1 %43, label %44, label %47

44:                                               ; preds = %41
  %45 = load i64, ptr %14, align 8, !tbaa !168
  %46 = add i64 %45, 1
  store i64 %46, ptr %12, align 8, !tbaa !168
  br label %49

47:                                               ; preds = %41
  %48 = load ptr, ptr %15, align 8, !tbaa !149
  store ptr %48, ptr %6, align 8
  store i32 1, ptr %17, align 4
  br label %52

49:                                               ; preds = %44
  br label %50

50:                                               ; preds = %49, %39
  br label %19, !llvm.loop !169

51:                                               ; preds = %19
  store ptr null, ptr %6, align 8
  store i32 1, ptr %17, align 4
  br label %52

52:                                               ; preds = %51, %47
  call void @llvm.lifetime.end.p0(i64 4, ptr %16) #12
  call void @llvm.lifetime.end.p0(i64 8, ptr %15) #12
  call void @llvm.lifetime.end.p0(i64 8, ptr %14) #12
  call void @llvm.lifetime.end.p0(i64 8, ptr %13) #12
  call void @llvm.lifetime.end.p0(i64 8, ptr %12) #12
  %53 = load ptr, ptr %6, align 8
  ret ptr %53
}

; Function Attrs: nounwind uwtable
define internal double @gain_interpolate_func(ptr noundef %0, double noundef %1) #1 {
  %3 = alloca double, align 8
  %4 = alloca ptr, align 8
  %5 = alloca double, align 8
  %6 = alloca ptr, align 8
  %7 = alloca ptr, align 8
  %8 = alloca ptr, align 8
  %9 = alloca double, align 8
  %10 = alloca double, align 8
  %11 = alloca double, align 8
  %12 = alloca i32, align 4
  store ptr %0, ptr %4, align 8, !tbaa !149
  store double %1, ptr %5, align 8, !tbaa !137
  call void @llvm.lifetime.start.p0(i64 8, ptr %6) #12
  %13 = load ptr, ptr %4, align 8, !tbaa !149
  store ptr %13, ptr %6, align 8, !tbaa !4
  call void @llvm.lifetime.start.p0(i64 8, ptr %7) #12
  %14 = load ptr, ptr %6, align 8, !tbaa !4
  %15 = getelementptr inbounds nuw %struct.AVFilterContext, ptr %14, i32 0, i32 9
  %16 = load ptr, ptr %15, align 8, !tbaa !9
  store ptr %16, ptr %7, align 8, !tbaa !22
  call void @llvm.lifetime.start.p0(i64 8, ptr %8) #12
  call void @llvm.lifetime.start.p0(i64 8, ptr %9) #12
  call void @llvm.lifetime.start.p0(i64 8, ptr %10) #12
  call void @llvm.lifetime.start.p0(i64 8, ptr %11) #12
  %17 = load double, ptr %5, align 8, !tbaa !137
  %18 = call i1 @llvm.is.fpclass.f64(double %17, i32 3)
  br i1 %18, label %19, label %21

19:                                               ; preds = %2
  %20 = load double, ptr %5, align 8, !tbaa !137
  store double %20, ptr %3, align 8
  store i32 1, ptr %12, align 4
  br label %135

21:                                               ; preds = %2
  %22 = load ptr, ptr %7, align 8, !tbaa !22
  %23 = getelementptr inbounds nuw %struct.FIREqualizerContext, ptr %22, i32 0, i32 49
  %24 = load i32, ptr %23, align 4, !tbaa !135
  %25 = icmp ne i32 %24, 0
  br i1 %25, label %27, label %26

26:                                               ; preds = %21
  store double 0.000000e+00, ptr %3, align 8
  store i32 1, ptr %12, align 4
  br label %135

27:                                               ; preds = %21
  %28 = load double, ptr %5, align 8, !tbaa !137
  %29 = load ptr, ptr %7, align 8, !tbaa !22
  %30 = getelementptr inbounds nuw %struct.FIREqualizerContext, ptr %29, i32 0, i32 51
  %31 = getelementptr inbounds [4096 x %struct.GainEntry], ptr %30, i64 0, i64 0
  %32 = getelementptr inbounds nuw %struct.GainEntry, ptr %31, i32 0, i32 0
  %33 = load double, ptr %32, align 8, !tbaa !150
  %34 = fcmp nsz ole double %28, %33
  br i1 %34, label %35, label %41

35:                                               ; preds = %27
  %36 = load ptr, ptr %7, align 8, !tbaa !22
  %37 = getelementptr inbounds nuw %struct.FIREqualizerContext, ptr %36, i32 0, i32 51
  %38 = getelementptr inbounds [4096 x %struct.GainEntry], ptr %37, i64 0, i64 0
  %39 = getelementptr inbounds nuw %struct.GainEntry, ptr %38, i32 0, i32 1
  %40 = load double, ptr %39, align 8, !tbaa !152
  store double %40, ptr %3, align 8
  store i32 1, ptr %12, align 4
  br label %135

41:                                               ; preds = %27
  %42 = load double, ptr %5, align 8, !tbaa !137
  %43 = load ptr, ptr %7, align 8, !tbaa !22
  %44 = getelementptr inbounds nuw %struct.FIREqualizerContext, ptr %43, i32 0, i32 51
  %45 = load ptr, ptr %7, align 8, !tbaa !22
  %46 = getelementptr inbounds nuw %struct.FIREqualizerContext, ptr %45, i32 0, i32 49
  %47 = load i32, ptr %46, align 4, !tbaa !135
  %48 = sub nsw i32 %47, 1
  %49 = sext i32 %48 to i64
  %50 = getelementptr inbounds [4096 x %struct.GainEntry], ptr %44, i64 0, i64 %49
  %51 = getelementptr inbounds nuw %struct.GainEntry, ptr %50, i32 0, i32 0
  %52 = load double, ptr %51, align 8, !tbaa !150
  %53 = fcmp nsz oge double %42, %52
  br i1 %53, label %54, label %65

54:                                               ; preds = %41
  %55 = load ptr, ptr %7, align 8, !tbaa !22
  %56 = getelementptr inbounds nuw %struct.FIREqualizerContext, ptr %55, i32 0, i32 51
  %57 = load ptr, ptr %7, align 8, !tbaa !22
  %58 = getelementptr inbounds nuw %struct.FIREqualizerContext, ptr %57, i32 0, i32 49
  %59 = load i32, ptr %58, align 4, !tbaa !135
  %60 = sub nsw i32 %59, 1
  %61 = sext i32 %60 to i64
  %62 = getelementptr inbounds [4096 x %struct.GainEntry], ptr %56, i64 0, i64 %61
  %63 = getelementptr inbounds nuw %struct.GainEntry, ptr %62, i32 0, i32 1
  %64 = load double, ptr %63, align 8, !tbaa !152
  store double %64, ptr %3, align 8
  store i32 1, ptr %12, align 4
  br label %135

65:                                               ; preds = %41
  %66 = load ptr, ptr %7, align 8, !tbaa !22
  %67 = getelementptr inbounds nuw %struct.FIREqualizerContext, ptr %66, i32 0, i32 51
  %68 = load ptr, ptr %7, align 8, !tbaa !22
  %69 = getelementptr inbounds nuw %struct.FIREqualizerContext, ptr %68, i32 0, i32 49
  %70 = load i32, ptr %69, align 4, !tbaa !135
  %71 = sub nsw i32 %70, 1
  %72 = sext i32 %71 to i64
  %73 = call ptr @bsearch(ptr noundef %5, ptr noundef %67, i64 noundef %72, i64 noundef 16, ptr noundef @gain_entry_compare)
  store ptr %73, ptr %8, align 8, !tbaa !153
  br label %74

74:                                               ; preds = %65
  %75 = load ptr, ptr %8, align 8, !tbaa !153
  %76 = icmp ne ptr %75, null
  br i1 %76, label %78, label %77

77:                                               ; preds = %74
  call void (ptr, i32, ptr, ...) @av_log(ptr noundef null, i32 noundef 0, ptr noundef @.str.12, ptr noundef @.str.19, ptr noundef @.str.14, i32 noundef 459)
  call void @abort() #15
  unreachable

78:                                               ; preds = %74
  br label %79

79:                                               ; preds = %78
  br label %80

80:                                               ; preds = %79
  %81 = load ptr, ptr %8, align 8, !tbaa !153
  %82 = getelementptr inbounds %struct.GainEntry, ptr %81, i64 1
  %83 = getelementptr inbounds nuw %struct.GainEntry, ptr %82, i32 0, i32 0
  %84 = load double, ptr %83, align 8, !tbaa !150
  %85 = load ptr, ptr %8, align 8, !tbaa !153
  %86 = getelementptr inbounds %struct.GainEntry, ptr %85, i64 0
  %87 = getelementptr inbounds nuw %struct.GainEntry, ptr %86, i32 0, i32 0
  %88 = load double, ptr %87, align 8, !tbaa !150
  %89 = fsub nsz double %84, %88
  store double %89, ptr %11, align 8, !tbaa !137
  %90 = load double, ptr %5, align 8, !tbaa !137
  %91 = load ptr, ptr %8, align 8, !tbaa !153
  %92 = getelementptr inbounds %struct.GainEntry, ptr %91, i64 0
  %93 = getelementptr inbounds nuw %struct.GainEntry, ptr %92, i32 0, i32 0
  %94 = load double, ptr %93, align 8, !tbaa !150
  %95 = fsub nsz double %90, %94
  store double %95, ptr %9, align 8, !tbaa !137
  %96 = load ptr, ptr %8, align 8, !tbaa !153
  %97 = getelementptr inbounds %struct.GainEntry, ptr %96, i64 1
  %98 = getelementptr inbounds nuw %struct.GainEntry, ptr %97, i32 0, i32 0
  %99 = load double, ptr %98, align 8, !tbaa !150
  %100 = load double, ptr %5, align 8, !tbaa !137
  %101 = fsub nsz double %99, %100
  store double %101, ptr %10, align 8, !tbaa !137
  %102 = load double, ptr %9, align 8, !tbaa !137
  %103 = fcmp nsz une double %102, 0.000000e+00
  br i1 %103, label %104, label %122

104:                                              ; preds = %80
  %105 = load double, ptr %10, align 8, !tbaa !137
  %106 = fcmp nsz une double %105, 0.000000e+00
  br i1 %106, label %107, label %122

107:                                              ; preds = %104
  %108 = load double, ptr %9, align 8, !tbaa !137
  %109 = load ptr, ptr %8, align 8, !tbaa !153
  %110 = getelementptr inbounds %struct.GainEntry, ptr %109, i64 1
  %111 = getelementptr inbounds nuw %struct.GainEntry, ptr %110, i32 0, i32 1
  %112 = load double, ptr %111, align 8, !tbaa !152
  %113 = load double, ptr %10, align 8, !tbaa !137
  %114 = load ptr, ptr %8, align 8, !tbaa !153
  %115 = getelementptr inbounds %struct.GainEntry, ptr %114, i64 0
  %116 = getelementptr inbounds nuw %struct.GainEntry, ptr %115, i32 0, i32 1
  %117 = load double, ptr %116, align 8, !tbaa !152
  %118 = fmul nsz double %113, %117
  %119 = call nsz double @llvm.fmuladd.f64(double %108, double %112, double %118)
  %120 = load double, ptr %11, align 8, !tbaa !137
  %121 = fdiv nsz double %119, %120
  store double %121, ptr %3, align 8
  store i32 1, ptr %12, align 4
  br label %135

122:                                              ; preds = %104, %80
  %123 = load double, ptr %9, align 8, !tbaa !137
  %124 = fcmp nsz une double %123, 0.000000e+00
  br i1 %124, label %125, label %130

125:                                              ; preds = %122
  %126 = load ptr, ptr %8, align 8, !tbaa !153
  %127 = getelementptr inbounds %struct.GainEntry, ptr %126, i64 1
  %128 = getelementptr inbounds nuw %struct.GainEntry, ptr %127, i32 0, i32 1
  %129 = load double, ptr %128, align 8, !tbaa !152
  store double %129, ptr %3, align 8
  store i32 1, ptr %12, align 4
  br label %135

130:                                              ; preds = %122
  %131 = load ptr, ptr %8, align 8, !tbaa !153
  %132 = getelementptr inbounds %struct.GainEntry, ptr %131, i64 0
  %133 = getelementptr inbounds nuw %struct.GainEntry, ptr %132, i32 0, i32 1
  %134 = load double, ptr %133, align 8, !tbaa !152
  store double %134, ptr %3, align 8
  store i32 1, ptr %12, align 4
  br label %135

135:                                              ; preds = %130, %125, %107, %54, %35, %26, %19
  call void @llvm.lifetime.end.p0(i64 8, ptr %11) #12
  call void @llvm.lifetime.end.p0(i64 8, ptr %10) #12
  call void @llvm.lifetime.end.p0(i64 8, ptr %9) #12
  call void @llvm.lifetime.end.p0(i64 8, ptr %8) #12
  call void @llvm.lifetime.end.p0(i64 8, ptr %7) #12
  call void @llvm.lifetime.end.p0(i64 8, ptr %6) #12
  %136 = load double, ptr %3, align 8
  ret double %136
}