; Function Attrs: nounwind uwtable
define internal double @gain_interpolate_func(ptr noundef readonly captures(none) %0, double noundef %1) #1 {
  %3 = getelementptr inbounds nuw i8, ptr %0, i64 72
  %4 = load ptr, ptr %3, align 8, !tbaa !4
  %5 = fcmp uno double %1, 0.000000e+00
  br i1 %5, label %58, label %6

6:                                                ; preds = %2
  %7 = getelementptr inbounds nuw i8, ptr %4, i64 340
  %8 = load i32, ptr %7, align 4, !tbaa !119
  %.not = icmp eq i32 %8, 0
  br i1 %.not, label %58, label %9

9:                                                ; preds = %6
  %10 = getelementptr inbounds nuw i8, ptr %4, i64 352
  %11 = load double, ptr %10, align 8, !tbaa !146
  %12 = fcmp nsz ugt double %1, %11
  br i1 %12, label %16, label %13

13:                                               ; preds = %9
  %14 = getelementptr inbounds nuw i8, ptr %4, i64 360
  %15 = load double, ptr %14, align 8, !tbaa !148
  br label %58

16:                                               ; preds = %9
  %17 = add nsw i32 %8, -1
  %18 = sext i32 %17 to i64
  %19 = getelementptr inbounds [4096 x %struct.GainEntry], ptr %10, i64 0, i64 %18
  %20 = load double, ptr %19, align 8, !tbaa !146
  %21 = fcmp nsz ult double %1, %20
  br i1 %21, label %25, label %22

22:                                               ; preds = %16
  %23 = getelementptr inbounds nuw i8, ptr %19, i64 8
  %24 = load double, ptr %23, align 8, !tbaa !148
  br label %58

25:                                               ; preds = %16
  %.not24.i = icmp eq i32 %17, 0
  br i1 %.not24.i, label %.loopexit, label %.lr.ph.i

.lr.ph.i:                                         ; preds = %25, %gain_entry_compare.exit.thread
  %.01621.i = phi i64 [ %.1.i, %gain_entry_compare.exit.thread ], [ 0, %25 ]
  %.01720.i = phi i64 [ %.118.i, %gain_entry_compare.exit.thread ], [ %18, %25 ]
  %26 = add i64 %.01720.i, %.01621.i
  %27 = lshr i64 %26, 1
  %28 = shl i64 %27, 4
  %29 = getelementptr inbounds nuw i8, ptr %10, i64 %28
  %30 = load double, ptr %29, align 8, !tbaa !146
  %31 = fcmp nsz olt double %1, %30
  br i1 %31, label %gain_entry_compare.exit.thread, label %gain_entry_compare.exit

gain_entry_compare.exit:                          ; preds = %.lr.ph.i
  %32 = getelementptr inbounds nuw i8, ptr %29, i64 16
  %33 = load double, ptr %32, align 8, !tbaa !146
  %34 = fcmp nsz ule double %1, %33
  br i1 %34, label %bsearch.exit, label %35

35:                                               ; preds = %gain_entry_compare.exit
  %36 = add nuw i64 %27, 1
  br label %gain_entry_compare.exit.thread

gain_entry_compare.exit.thread:                   ; preds = %.lr.ph.i, %35
  %.118.i = phi i64 [ %.01720.i, %35 ], [ %27, %.lr.ph.i ]
  %.1.i = phi i64 [ %36, %35 ], [ %.01621.i, %.lr.ph.i ]
  %37 = icmp ult i64 %.1.i, %.118.i
  br i1 %37, label %.lr.ph.i, label %.loopexit, !llvm.loop !149

.loopexit:                                        ; preds = %gain_entry_compare.exit.thread, %25
  tail call void (ptr, i32, ptr, ...) @av_log(ptr noundef null, i32 noundef 0, ptr noundef nonnull @.str.12, ptr noundef nonnull @.str.19, ptr noundef nonnull @.str.14, i32 noundef 459) #14
  tail call void @abort() #17
  unreachable

bsearch.exit:                                     ; preds = %gain_entry_compare.exit
  %38 = fsub nsz double %1, %30
  %39 = fsub nsz double %33, %1
  %40 = fcmp nsz une double %38, 0.000000e+00
  %41 = fcmp nsz une double %39, 0.000000e+00
  %or.cond = and i1 %40, %41
  br i1 %or.cond, label %42, label %51

42:                                               ; preds = %bsearch.exit
  %43 = fsub nsz double %33, %30
  %44 = getelementptr inbounds nuw i8, ptr %29, i64 24
  %45 = load double, ptr %44, align 8, !tbaa !148
  %46 = getelementptr inbounds nuw i8, ptr %29, i64 8
  %47 = load double, ptr %46, align 8, !tbaa !148
  %48 = fmul nsz double %39, %47
  %49 = tail call nsz double @llvm.fmuladd.f64(double %38, double %45, double %48)
  %50 = fdiv nsz double %49, %43
  br label %58

51:                                               ; preds = %bsearch.exit
  br i1 %40, label %52, label %55

52:                                               ; preds = %51
  %53 = getelementptr inbounds nuw i8, ptr %29, i64 24
  %54 = load double, ptr %53, align 8, !tbaa !148
  br label %58

55:                                               ; preds = %51
  %56 = getelementptr inbounds nuw i8, ptr %29, i64 8
  %57 = load double, ptr %56, align 8, !tbaa !148
  br label %58

58:                                               ; preds = %6, %2, %55, %52, %42, %22, %13
  %.0 = phi nsz double [ %15, %13 ], [ %24, %22 ], [ %50, %42 ], [ %54, %52 ], [ %57, %55 ], [ %1, %2 ], [ 0.000000e+00, %6 ]
  ret double %.0
}